; Function Attrs: mustprogress nounwind uwtable
define hidden void @_ZN18HandshakeOperation7prepareEP10JavaThreadP6Thread(ptr nocapture noundef nonnull readonly align 8 dereferenceable(40) %0, ptr noundef %1, ptr noundef readnone %2) local_unnamed_addr #0 align 2 {
  %4 = getelementptr inbounds i8, ptr %1, i64 1128
  %5 = load volatile i32, ptr %4, align 4
  tail call void asm sideeffect "", "~{memory},~{dirflag},~{fpsr},~{flags}"() #11, !srcloc !6
  %6 = add i32 %5, -57005
  %7 = icmp ult i32 %6, 2
  br i1 %7, label %20, label %8

8:                                                ; preds = %3
  %.not = icmp eq ptr %1, %2
  br i1 %.not, label %10, label %9

9:                                                ; preds = %8
  tail call void @_ZN17StackWatermarkSet16start_processingEP10JavaThread18StackWatermarkKind(ptr noundef nonnull %1, i32 noundef 0) #11
  br label %10

10:                                               ; preds = %9, %8
  %11 = getelementptr inbounds i8, ptr %0, i64 32
  %12 = load ptr, ptr %11, align 8
  %.not7 = icmp eq ptr %12, null
  %.not8 = icmp eq ptr %12, %2
  %or.cond = or i1 %.not7, %.not8
  br i1 %or.cond, label %20, label %13

13:                                               ; preds = %10
  %14 = load ptr, ptr %12, align 8
  %15 = getelementptr inbounds i8, ptr %14, i64 56
  %16 = load ptr, ptr %15, align 8
  %17 = tail call noundef zeroext i1 %16(ptr noundef nonnull align 8 dereferenceable(888) %12) #11
  br i1 %17, label %18, label %20

18:                                               ; preds = %13
  %19 = load ptr, ptr %11, align 8
  tail call void @_ZN17StackWatermarkSet16start_processingEP10JavaThread18StackWatermarkKind(ptr noundef %19, i32 noundef 0) #11
  br label %20

20:                                               ; preds = %3, %18, %13, %10
  ret void
}